; Function Attrs: mustprogress nofree norecurse nosync nounwind willreturn memory(argmem: read) uwtable
define noundef zeroext i1 @_ZN3re216CharClassBuilder10FoldsASCIIEv(ptr nocapture noundef nonnull readonly align 8 dereferenceable(64) %this) local_unnamed_addr #13 align 2 {
entry:
  %0 = load i32, ptr %this, align 8
  %lower_ = getelementptr inbounds i8, ptr %this, i64 4
  %1 = load i32, ptr %lower_, align 4
  %xor = xor i32 %1, %0
  %and = and i32 %xor, 67108863
  %cmp = icmp eq i32 %and, 0
  ret i1 %cmp
}